target datalayout = "e-m:e-p270:32:32-p271:32:32-p272:64:64-i64:64-i128:128-f80:128-n8:16:32:64-S128"
target triple = "x86_64-pc-linux-gnu"

%struct.mbedtls_ssl_flight_item = type { ptr, i64, i8, ptr }

; Function Attrs: nounwind uwtable
define hidden void @mbedtls_ssl_flight_free(ptr noundef %0) #0 {
  %2 = alloca ptr, align 8
  %3 = alloca ptr, align 8
  %4 = alloca ptr, align 8
  store ptr %0, ptr %2, align 8, !tbaa !112
  call void @llvm.lifetime.start.p0(i64 8, ptr %3) #11
  %5 = load ptr, ptr %2, align 8, !tbaa !112
  store ptr %5, ptr %3, align 8, !tbaa !112
  call void @llvm.lifetime.start.p0(i64 8, ptr %4) #11
  br label %6

6:                                                ; preds = %9, %1
  %7 = load ptr, ptr %3, align 8, !tbaa !112
  %8 = icmp ne ptr %7, null
  br i1 %8, label %9, label %18

9:                                                ; preds = %6
  %10 = load ptr, ptr %3, align 8, !tbaa !112
  %11 = getelementptr inbounds nuw %struct.mbedtls_ssl_flight_item, ptr %10, i32 0, i32 3
  %12 = load ptr, ptr %11, align 8, !tbaa !113
  store ptr %12, ptr %4, align 8, !tbaa !112
  %13 = load ptr, ptr %3, align 8, !tbaa !112
  %14 = getelementptr inbounds nuw %struct.mbedtls_ssl_flight_item, ptr %13, i32 0, i32 0
  %15 = load ptr, ptr %14, align 8, !tbaa !115
  call void @free(ptr noundef %15) #11
  %16 = load ptr, ptr %3, align 8, !tbaa !112
  call void @free(ptr noundef %16) #11
  %17 = load ptr, ptr %4, align 8, !tbaa !112
  store ptr %17, ptr %3, align 8, !tbaa !112
  br label %6, !llvm.loop !116

18:                                               ; preds = %6
  call void @llvm.lifetime.end.p0(i64 8, ptr %4) #11
  call void @llvm.lifetime.end.p0(i64 8, ptr %3) #11
  ret void
}